target datalayout = "e-m:e-p270:32:32-p271:32:32-p272:64:64-i64:64-i128:128-f80:128-n8:16:32:64-S128"
target triple = "x86_64-pc-linux-gnu"

%class.QString = type { %struct.QArrayDataPointer }
%struct.QArrayDataPointer = type { ptr, ptr, i64 }
%class.PreferencesDialog = type { %class.GeometryStateDialog, ptr, %class.QHash, %class.PrefsModel, %class.AdvancedPrefsModel, %class.AdvancedPrefDelegate, %class.ModulePrefsModel, i32, ptr, %class.QString }
%class.GeometryStateDialog = type { %class.QDialog, %class.QString }
%class.QDialog = type { %class.QWidget }
%class.QWidget = type { %class.QObject, %class.QPaintDevice.base, ptr }
%class.QObject = type { ptr, %class.QScopedPointer }
%class.QScopedPointer = type { ptr }
%class.QPaintDevice.base = type <{ ptr, i16 }>
%class.QHash = type { ptr }
%class.PrefsModel = type { %class.QAbstractItemModel, ptr }
%class.QAbstractItemModel = type { %class.QObject }
%class.AdvancedPrefsModel = type <{ %class.QSortFilterProxyModel, %class.QString, i8, i8, %class.QChar, [4 x i8] }>
%class.QSortFilterProxyModel = type { %class.QAbstractProxyModel }
%class.QAbstractProxyModel = type { %class.QAbstractItemModel }
%class.QChar = type { i16 }
%class.AdvancedPrefDelegate = type { %class.QStyledItemDelegate }
%class.QStyledItemDelegate = type { %class.QAbstractItemDelegate }
%class.QAbstractItemDelegate = type { %class.QObject }
%class.ModulePrefsModel = type { %class.QSortFilterProxyModel, %class.QString }
%class.Ui_PreferencesDialog = type { ptr, ptr, ptr, ptr, ptr, ptr, ptr, ptr, ptr, ptr, ptr, ptr, ptr, ptr, ptr, ptr, ptr, ptr, ptr, ptr, ptr }

; Function Attrs: mustprogress uwtable
define void @_ZN17PreferencesDialog20updateSearchLineEditEv(ptr noundef nonnull align 8 dereferenceable(248) %0) #0 align 2 {
  %2 = alloca ptr, align 8
  store ptr %0, ptr %2, align 8
  %3 = load ptr, ptr %2, align 8
  %4 = getelementptr inbounds %class.PreferencesDialog, ptr %3, i32 0, i32 4
  %5 = getelementptr inbounds %class.PreferencesDialog, ptr %3, i32 0, i32 9
  call void @_ZN18AdvancedPrefsModel9setFilterERK7QString(ptr noundef nonnull align 8 dereferenceable(44) %4, ptr noundef nonnull align 8 dereferenceable(24) %5)
  %6 = getelementptr inbounds %class.PreferencesDialog, ptr %3, i32 0, i32 1
  %7 = load ptr, ptr %6, align 8
  %8 = getelementptr inbounds %class.Ui_PreferencesDialog, ptr %7, i32 0, i32 19
  %9 = load ptr, ptr %8, align 8
  call void @_ZN9QTreeView9expandAllEv(ptr noundef nonnull align 8 dereferenceable(40) %9)
  ret void
}