; Function Attrs: mustprogress uwtable
define void @_ZN17PreferencesDialog20updateSearchLineEditEv(ptr noundef nonnull align 8 dereferenceable(248) %0) #0 align 2 {
  %2 = getelementptr inbounds i8, ptr %0, i64 104
  %3 = getelementptr inbounds i8, ptr %0, i64 224
  tail call void @_ZN18AdvancedPrefsModel9setFilterERK7QString(ptr noundef nonnull align 8 dereferenceable(44) %2, ptr noundef nonnull align 8 dereferenceable(24) %3)
  %4 = getelementptr inbounds i8, ptr %0, i64 64
  %5 = load ptr, ptr %4, align 8
  %6 = getelementptr inbounds i8, ptr %5, i64 152
  %7 = load ptr, ptr %6, align 8
  tail call void @_ZN9QTreeView9expandAllEv(ptr noundef nonnull align 8 dereferenceable(40) %7)
  ret void
}